
GccApplication7.elf:     file format elf32-avr

Sections:
Idx Name          Size      VMA       LMA       File off  Algn
  0 .text         0000017a  00000000  00000000  00000074  2**1
                  CONTENTS, ALLOC, LOAD, READONLY, CODE
  1 .data         000001ec  00800060  0000017a  000001ee  2**0
                  CONTENTS, ALLOC, LOAD, DATA
  2 .comment      00000030  00000000  00000000  000003da  2**0
                  CONTENTS, READONLY
  3 .note.gnu.avr.deviceinfo 0000003c  00000000  00000000  0000040c  2**2
                  CONTENTS, READONLY
  4 .debug_aranges 00000078  00000000  00000000  00000448  2**0
                  CONTENTS, READONLY, DEBUGGING
  5 .debug_info   00000920  00000000  00000000  000004c0  2**0
                  CONTENTS, READONLY, DEBUGGING
  6 .debug_abbrev 00000641  00000000  00000000  00000de0  2**0
                  CONTENTS, READONLY, DEBUGGING
  7 .debug_line   00000443  00000000  00000000  00001421  2**0
                  CONTENTS, READONLY, DEBUGGING
  8 .debug_frame  00000110  00000000  00000000  00001864  2**2
                  CONTENTS, READONLY, DEBUGGING
  9 .debug_str    0000048e  00000000  00000000  00001974  2**0
                  CONTENTS, READONLY, DEBUGGING
 10 .debug_loc    00000299  00000000  00000000  00001e02  2**0
                  CONTENTS, READONLY, DEBUGGING
 11 .debug_ranges 00000080  00000000  00000000  0000209b  2**0
                  CONTENTS, READONLY, DEBUGGING

Disassembly of section .text:

00000000 <__vectors>:
   0:	12 c0       	rjmp	.+36     	; 0x26 <__ctors_end>
   2:	24 c0       	rjmp	.+72     	; 0x4c <__bad_interrupt>
   4:	23 c0       	rjmp	.+70     	; 0x4c <__bad_interrupt>
   6:	22 c0       	rjmp	.+68     	; 0x4c <__bad_interrupt>
   8:	21 c0       	rjmp	.+66     	; 0x4c <__bad_interrupt>
   a:	20 c0       	rjmp	.+64     	; 0x4c <__bad_interrupt>
   c:	1f c0       	rjmp	.+62     	; 0x4c <__bad_interrupt>
   e:	1e c0       	rjmp	.+60     	; 0x4c <__bad_interrupt>
  10:	1d c0       	rjmp	.+58     	; 0x4c <__bad_interrupt>
  12:	1c c0       	rjmp	.+56     	; 0x4c <__bad_interrupt>
  14:	1b c0       	rjmp	.+54     	; 0x4c <__bad_interrupt>
  16:	1a c0       	rjmp	.+52     	; 0x4c <__bad_interrupt>
  18:	19 c0       	rjmp	.+50     	; 0x4c <__bad_interrupt>
  1a:	18 c0       	rjmp	.+48     	; 0x4c <__bad_interrupt>
  1c:	17 c0       	rjmp	.+46     	; 0x4c <__bad_interrupt>
  1e:	16 c0       	rjmp	.+44     	; 0x4c <__bad_interrupt>
  20:	15 c0       	rjmp	.+42     	; 0x4c <__bad_interrupt>
  22:	14 c0       	rjmp	.+40     	; 0x4c <__bad_interrupt>
  24:	13 c0       	rjmp	.+38     	; 0x4c <__bad_interrupt>

00000026 <__ctors_end>:
  26:	11 24       	eor	r1, r1
  28:	1f be       	out	0x3f, r1	; 63
  2a:	cf e5       	ldi	r28, 0x5F	; 95
  2c:	d4 e0       	ldi	r29, 0x04	; 4
  2e:	de bf       	out	0x3e, r29	; 62
  30:	cd bf       	out	0x3d, r28	; 61

00000032 <__do_copy_data>:
  32:	12 e0       	ldi	r17, 0x02	; 2
  34:	a0 e6       	ldi	r26, 0x60	; 96
  36:	b0 e0       	ldi	r27, 0x00	; 0
  38:	ea e7       	ldi	r30, 0x7A	; 122
  3a:	f1 e0       	ldi	r31, 0x01	; 1
  3c:	02 c0       	rjmp	.+4      	; 0x42 <__SREG__+0x3>
  3e:	05 90       	lpm	r0, Z+
  40:	0d 92       	st	X+, r0
  42:	ac 34       	cpi	r26, 0x4C	; 76
  44:	b1 07       	cpc	r27, r17
  46:	d9 f7       	brne	.-10     	; 0x3e <__SP_H__>
  48:	8a d0       	rcall	.+276    	; 0x15e <main>
  4a:	95 c0       	rjmp	.+298    	; 0x176 <_exit>

0000004c <__bad_interrupt>:
  4c:	d9 cf       	rjmp	.-78     	; 0x0 <__vectors>

0000004e <_Z13SPI_SS_Enablev>:
char SPI_Read()
{
	SPDR = 0xFF;
	while(!(SPSR & (1<<SPIF)));										/* wait here while SPIF flag set */
	return(SPDR);													/* Return the SPDR value */
}
  4e:	c2 98       	cbi	0x18, 2	; 24
  50:	08 95       	ret

00000052 <_Z14SPI_SS_Disablev>:
  52:	c2 9a       	sbi	0x18, 2	; 24
  54:	08 95       	ret

00000056 <_Z8SPI_Initv>:
  56:	8e e6       	ldi	r24, 0x6E	; 110
  58:	87 bb       	out	0x17, r24	; 23
  5a:	c1 9a       	sbi	0x18, 1	; 24
  5c:	bc 98       	cbi	0x17, 4	; 23
  5e:	c2 9a       	sbi	0x18, 2	; 24
  60:	81 e5       	ldi	r24, 0x51	; 81
  62:	8d b9       	out	0x0d, r24	; 13
  64:	08 95       	ret

00000066 <_Z9SPI_Writec>:

void SPI_Write(char write_data)
{
	SPDR = write_data;
  66:	8f b9       	out	0x0f, r24	; 15
	while(!(SPSR & (1<<SPIF)));										/* wait here while SPIF flag set */
  68:	77 9b       	sbis	0x0e, 7	; 14
  6a:	fe cf       	rjmp	.-4      	; 0x68 <_Z9SPI_Writec+0x2>
}
  6c:	08 95       	ret

0000006e <_Z10N5110_Cmndc>:


void N5110_Cmnd(char DATA)
{
  6e:	cf 93       	push	r28
  70:	c8 2f       	mov	r28, r24
	PORTB &= ~(1<<DC);				/* make DC pin to logic zero for command operation */
  72:	c6 98       	cbi	0x18, 6	; 24
	SPI_SS_Enable();				/* enable SS pin to slave selection */	
  74:	ec df       	rcall	.-40     	; 0x4e <_Z13SPI_SS_Enablev>
	SPI_Write(DATA);				/* send data on data register */
  76:	8c 2f       	mov	r24, r28
  78:	f6 df       	rcall	.-20     	; 0x66 <_Z9SPI_Writec>
	PORTB |= (1<<DC);				/* make DC pin to logic high for data operation */
  7a:	c6 9a       	sbi	0x18, 6	; 24
	SPI_SS_Disable();
  7c:	ea df       	rcall	.-44     	; 0x52 <_Z14SPI_SS_Disablev>
}
  7e:	cf 91       	pop	r28
  80:	08 95       	ret

00000082 <_Z10N5110_DataPc>:

void N5110_Data(char *DATA)
{
  82:	ef 92       	push	r14
  84:	ff 92       	push	r15
  86:	0f 93       	push	r16
  88:	1f 93       	push	r17
  8a:	cf 93       	push	r28
  8c:	df 93       	push	r29
  8e:	8c 01       	movw	r16, r24
	PORTB |= (1<<DC);									/* make DC pin to logic high for data operation */
  90:	c6 9a       	sbi	0x18, 6	; 24
	SPI_SS_Enable();									/* enable SS pin to slave selection */
  92:	dd df       	rcall	.-70     	; 0x4e <_Z13SPI_SS_Enablev>
	int lenan = strlen(DATA);							/* measure the length of data */
  94:	f8 01       	movw	r30, r16
  96:	01 90       	ld	r0, Z+
  98:	00 20       	and	r0, r0
  9a:	e9 f7       	brne	.-6      	; 0x96 <_Z10N5110_DataPc+0x14>
  9c:	31 97       	sbiw	r30, 0x01	; 1
  9e:	e0 1b       	sub	r30, r16
  a0:	f1 0b       	sbc	r31, r17
	for (int g=0; g<lenan; g++)
  a2:	1e 16       	cp	r1, r30
  a4:	1f 06       	cpc	r1, r31
  a6:	1c f5       	brge	.+70     	; 0xee <_Z10N5110_DataPc+0x6c>
  a8:	e8 01       	movw	r28, r16
  aa:	0e 0f       	add	r16, r30
  ac:	1f 1f       	adc	r17, r31
	PORTB |= (1<<DC);				/* make DC pin to logic high for data operation */
	SPI_SS_Disable();
}

void N5110_Data(char *DATA)
{
  ae:	e1 2c       	mov	r14, r1
  b0:	f1 2c       	mov	r15, r1
	int lenan = strlen(DATA);							/* measure the length of data */
	for (int g=0; g<lenan; g++)
	{
		for (int index=0; index<5; index++)
		{
			SPI_Write(ASCII[DATA[g] - 0x20][index]);	/* send the data on data register */			
  b2:	28 81       	ld	r18, Y
  b4:	30 e0       	ldi	r19, 0x00	; 0
  b6:	20 52       	subi	r18, 0x20	; 32
  b8:	31 09       	sbc	r19, r1
  ba:	f9 01       	movw	r30, r18
  bc:	ee 0f       	add	r30, r30
  be:	ff 1f       	adc	r31, r31
  c0:	ee 0f       	add	r30, r30
  c2:	ff 1f       	adc	r31, r31
  c4:	e2 0f       	add	r30, r18
  c6:	f3 1f       	adc	r31, r19
  c8:	e5 59       	subi	r30, 0x95	; 149
  ca:	ff 4f       	sbci	r31, 0xFF	; 255
  cc:	ee 0d       	add	r30, r14
  ce:	ff 1d       	adc	r31, r15
  d0:	80 81       	ld	r24, Z
  d2:	c9 df       	rcall	.-110    	; 0x66 <_Z9SPI_Writec>
	PORTB |= (1<<DC);									/* make DC pin to logic high for data operation */
	SPI_SS_Enable();									/* enable SS pin to slave selection */
	int lenan = strlen(DATA);							/* measure the length of data */
	for (int g=0; g<lenan; g++)
	{
		for (int index=0; index<5; index++)
  d4:	8f ef       	ldi	r24, 0xFF	; 255
  d6:	e8 1a       	sub	r14, r24
  d8:	f8 0a       	sbc	r15, r24
  da:	85 e0       	ldi	r24, 0x05	; 5
  dc:	e8 16       	cp	r14, r24
  de:	f1 04       	cpc	r15, r1
  e0:	41 f7       	brne	.-48     	; 0xb2 <_Z10N5110_DataPc+0x30>
		{
			SPI_Write(ASCII[DATA[g] - 0x20][index]);	/* send the data on data register */			
		}
		SPI_Write(0x00);
  e2:	80 e0       	ldi	r24, 0x00	; 0
  e4:	c0 df       	rcall	.-128    	; 0x66 <_Z9SPI_Writec>
  e6:	21 96       	adiw	r28, 0x01	; 1
void N5110_Data(char *DATA)
{
	PORTB |= (1<<DC);									/* make DC pin to logic high for data operation */
	SPI_SS_Enable();									/* enable SS pin to slave selection */
	int lenan = strlen(DATA);							/* measure the length of data */
	for (int g=0; g<lenan; g++)
  e8:	0c 17       	cp	r16, r28
  ea:	1d 07       	cpc	r17, r29
  ec:	01 f7       	brne	.-64     	; 0xae <_Z10N5110_DataPc+0x2c>
		{
			SPI_Write(ASCII[DATA[g] - 0x20][index]);	/* send the data on data register */			
		}
		SPI_Write(0x00);
	}							
	SPI_SS_Disable();									
  ee:	b1 df       	rcall	.-158    	; 0x52 <_Z14SPI_SS_Disablev>
}
  f0:	df 91       	pop	r29
  f2:	cf 91       	pop	r28
  f4:	1f 91       	pop	r17
  f6:	0f 91       	pop	r16
  f8:	ff 90       	pop	r15
  fa:	ef 90       	pop	r14
  fc:	08 95       	ret

000000fe <_Z11N5110_Resetv>:

void N5110_Reset()					/* reset the Display at the beginning of initialization */
{
	PORTB &= ~(1<<RST);
  fe:	c1 98       	cbi	0x18, 1	; 24
	#else
		//round up by default
		__ticks_dc = (uint32_t)(ceil(fabs(__tmp)));
	#endif

	__builtin_avr_delay_cycles(__ticks_dc);
 100:	2f ef       	ldi	r18, 0xFF	; 255
 102:	80 e7       	ldi	r24, 0x70	; 112
 104:	92 e0       	ldi	r25, 0x02	; 2
 106:	21 50       	subi	r18, 0x01	; 1
 108:	80 40       	sbci	r24, 0x00	; 0
 10a:	90 40       	sbci	r25, 0x00	; 0
 10c:	e1 f7       	brne	.-8      	; 0x106 <_Z11N5110_Resetv+0x8>
 10e:	00 c0       	rjmp	.+0      	; 0x110 <_Z11N5110_Resetv+0x12>
 110:	00 00       	nop
	_delay_ms(100);
	PORTB |= (1<<RST);
 112:	c1 9a       	sbi	0x18, 1	; 24
 114:	08 95       	ret

00000116 <_Z10N5110_initv>:
}

void N5110_init()
{
	N5110_Reset();					/* reset the display */
 116:	f3 df       	rcall	.-26     	; 0xfe <_Z11N5110_Resetv>
	N5110_Cmnd(0x21);				/* command set in addition mode */
 118:	81 e2       	ldi	r24, 0x21	; 33
 11a:	a9 df       	rcall	.-174    	; 0x6e <_Z10N5110_Cmndc>
	N5110_Cmnd(0xC0);				/* set the voltage by sending C0 means VOP = 5V */
 11c:	80 ec       	ldi	r24, 0xC0	; 192
 11e:	a7 df       	rcall	.-178    	; 0x6e <_Z10N5110_Cmndc>
	N5110_Cmnd(0x07);				/* set the temp. coefficient to 3 */
 120:	87 e0       	ldi	r24, 0x07	; 7
 122:	a5 df       	rcall	.-182    	; 0x6e <_Z10N5110_Cmndc>
	N5110_Cmnd(0x13);				/* set value of Voltage Bias System */
 124:	83 e1       	ldi	r24, 0x13	; 19
 126:	a3 df       	rcall	.-186    	; 0x6e <_Z10N5110_Cmndc>
	N5110_Cmnd(0x20);				/* command set in basic mode */
 128:	80 e2       	ldi	r24, 0x20	; 32
 12a:	a1 df       	rcall	.-190    	; 0x6e <_Z10N5110_Cmndc>
	N5110_Cmnd(0x0C);				/* display result in normal mode */
 12c:	8c e0       	ldi	r24, 0x0C	; 12
 12e:	9f df       	rcall	.-194    	; 0x6e <_Z10N5110_Cmndc>
 130:	08 95       	ret

00000132 <_Z9lcd_setXYcc>:
}

void lcd_setXY(char x, char y)		/* set the column and row */
{
 132:	cf 93       	push	r28
 134:	c6 2f       	mov	r28, r22
	N5110_Cmnd(x);
 136:	9b df       	rcall	.-202    	; 0x6e <_Z10N5110_Cmndc>
	N5110_Cmnd(y);
 138:	8c 2f       	mov	r24, r28
 13a:	99 df       	rcall	.-206    	; 0x6e <_Z10N5110_Cmndc>
}
 13c:	cf 91       	pop	r28
 13e:	08 95       	ret

00000140 <_Z11N5110_clearv>:

void N5110_clear()					/* clear the Display */
{
 140:	cf 93       	push	r28
 142:	df 93       	push	r29
	SPI_SS_Enable();
 144:	84 df       	rcall	.-248    	; 0x4e <_Z13SPI_SS_Enablev>
	PORTB |= (1<<DC);
 146:	c6 9a       	sbi	0x18, 6	; 24
 148:	c8 ef       	ldi	r28, 0xF8	; 248
 14a:	d1 e0       	ldi	r29, 0x01	; 1
	for (int k=0; k<=503; k++)
	{
		SPI_Write(0x00);		
 14c:	80 e0       	ldi	r24, 0x00	; 0
 14e:	8b df       	rcall	.-234    	; 0x66 <_Z9SPI_Writec>
 150:	21 97       	sbiw	r28, 0x01	; 1

void N5110_clear()					/* clear the Display */
{
	SPI_SS_Enable();
	PORTB |= (1<<DC);
	for (int k=0; k<=503; k++)
 152:	e1 f7       	brne	.-8      	; 0x14c <_Z11N5110_clearv+0xc>
	{
		SPI_Write(0x00);		
	}
	PORTB &= ~(1<<DC);
 154:	c6 98       	cbi	0x18, 6	; 24
	SPI_SS_Disable();	
 156:	7d df       	rcall	.-262    	; 0x52 <_Z14SPI_SS_Disablev>
}
 158:	df 91       	pop	r29
 15a:	cf 91       	pop	r28
 15c:	08 95       	ret

0000015e <main>:

int main()
{
	DDRC= 0xFF;
 15e:	8f ef       	ldi	r24, 0xFF	; 255
 160:	84 bb       	out	0x14, r24	; 20
	SPI_Init();
 162:	79 df       	rcall	.-270    	; 0x56 <_Z8SPI_Initv>
	N5110_init();
 164:	d8 df       	rcall	.-80     	; 0x116 <_Z10N5110_initv>
	N5110_clear();
 166:	ec df       	rcall	.-40     	; 0x140 <_Z11N5110_clearv>
	lcd_setXY(0x40,0x80);
 168:	60 e8       	ldi	r22, 0x80	; 128
 16a:	80 e4       	ldi	r24, 0x40	; 64
 16c:	e2 df       	rcall	.-60     	; 0x132 <_Z9lcd_setXYcc>
	N5110_Data("Electronic");
 16e:	80 e6       	ldi	r24, 0x60	; 96
 170:	90 e0       	ldi	r25, 0x00	; 0
 172:	87 df       	rcall	.-242    	; 0x82 <_Z10N5110_DataPc>
 174:	ff cf       	rjmp	.-2      	; 0x174 <main+0x16>

00000176 <_exit>:
 176:	f8 94       	cli

00000178 <__stop_program>:
 178:	ff cf       	rjmp	.-2      	; 0x178 <__stop_program>
