
GccApplication2.elf:     file format elf32-avr

Sections:
Idx Name          Size      VMA       LMA       File off  Algn
  0 .text         0000042a  00000000  00000000  00000094  2**1
                  CONTENTS, ALLOC, LOAD, READONLY, CODE
  1 .data         00000006  00800060  0000042a  000004be  2**0
                  CONTENTS, ALLOC, LOAD, DATA
  2 .bss          00000004  00800066  00800066  000004c4  2**0
                  ALLOC
  3 .comment      00000030  00000000  00000000  000004c4  2**0
                  CONTENTS, READONLY
  4 .note.gnu.avr.deviceinfo 0000003c  00000000  00000000  000004f4  2**2
                  CONTENTS, READONLY
  5 .debug_aranges 00000050  00000000  00000000  00000530  2**0
                  CONTENTS, READONLY, DEBUGGING
  6 .debug_info   00000978  00000000  00000000  00000580  2**0
                  CONTENTS, READONLY, DEBUGGING
  7 .debug_abbrev 000006a4  00000000  00000000  00000ef8  2**0
                  CONTENTS, READONLY, DEBUGGING
  8 .debug_line   0000038d  00000000  00000000  0000159c  2**0
                  CONTENTS, READONLY, DEBUGGING
  9 .debug_frame  000000d0  00000000  00000000  0000192c  2**2
                  CONTENTS, READONLY, DEBUGGING
 10 .debug_str    0000043d  00000000  00000000  000019fc  2**0
                  CONTENTS, READONLY, DEBUGGING
 11 .debug_loc    00000447  00000000  00000000  00001e39  2**0
                  CONTENTS, READONLY, DEBUGGING
 12 .debug_ranges 00000040  00000000  00000000  00002280  2**0
                  CONTENTS, READONLY, DEBUGGING

Disassembly of section .text:

00000000 <__vectors>:
   0:	12 c0       	rjmp	.+36     	; 0x26 <__ctors_end>
   2:	2c c0       	rjmp	.+88     	; 0x5c <__bad_interrupt>
   4:	2b c0       	rjmp	.+86     	; 0x5c <__bad_interrupt>
   6:	2a c0       	rjmp	.+84     	; 0x5c <__bad_interrupt>
   8:	29 c0       	rjmp	.+82     	; 0x5c <__bad_interrupt>
   a:	28 c0       	rjmp	.+80     	; 0x5c <__bad_interrupt>
   c:	27 c0       	rjmp	.+78     	; 0x5c <__bad_interrupt>
   e:	26 c0       	rjmp	.+76     	; 0x5c <__bad_interrupt>
  10:	25 c0       	rjmp	.+74     	; 0x5c <__bad_interrupt>
  12:	24 c0       	rjmp	.+72     	; 0x5c <__bad_interrupt>
  14:	23 c0       	rjmp	.+70     	; 0x5c <__bad_interrupt>
  16:	22 c0       	rjmp	.+68     	; 0x5c <__bad_interrupt>
  18:	21 c0       	rjmp	.+66     	; 0x5c <__bad_interrupt>
  1a:	20 c0       	rjmp	.+64     	; 0x5c <__bad_interrupt>
  1c:	1f c0       	rjmp	.+62     	; 0x5c <__bad_interrupt>
  1e:	1e c0       	rjmp	.+60     	; 0x5c <__bad_interrupt>
  20:	1d c0       	rjmp	.+58     	; 0x5c <__bad_interrupt>
  22:	1c c0       	rjmp	.+56     	; 0x5c <__bad_interrupt>
  24:	1b c0       	rjmp	.+54     	; 0x5c <__bad_interrupt>

00000026 <__ctors_end>:
  26:	11 24       	eor	r1, r1
  28:	1f be       	out	0x3f, r1	; 63
  2a:	cf e5       	ldi	r28, 0x5F	; 95
  2c:	d4 e0       	ldi	r29, 0x04	; 4
  2e:	de bf       	out	0x3e, r29	; 62
  30:	cd bf       	out	0x3d, r28	; 61

00000032 <__do_copy_data>:
  32:	10 e0       	ldi	r17, 0x00	; 0
  34:	a0 e6       	ldi	r26, 0x60	; 96
  36:	b0 e0       	ldi	r27, 0x00	; 0
  38:	ea e2       	ldi	r30, 0x2A	; 42
  3a:	f4 e0       	ldi	r31, 0x04	; 4
  3c:	02 c0       	rjmp	.+4      	; 0x42 <__SREG__+0x3>
  3e:	05 90       	lpm	r0, Z+
  40:	0d 92       	st	X+, r0
  42:	a6 36       	cpi	r26, 0x66	; 102
  44:	b1 07       	cpc	r27, r17
  46:	d9 f7       	brne	.-10     	; 0x3e <__SP_H__>

00000048 <__do_clear_bss>:
  48:	20 e0       	ldi	r18, 0x00	; 0
  4a:	a6 e6       	ldi	r26, 0x66	; 102
  4c:	b0 e0       	ldi	r27, 0x00	; 0
  4e:	01 c0       	rjmp	.+2      	; 0x52 <.do_clear_bss_start>

00000050 <.do_clear_bss_loop>:
  50:	1d 92       	st	X+, r1

00000052 <.do_clear_bss_start>:
  52:	aa 36       	cpi	r26, 0x6A	; 106
  54:	b2 07       	cpc	r27, r18
  56:	e1 f7       	brne	.-8      	; 0x50 <.do_clear_bss_loop>
  58:	87 d0       	rcall	.+270    	; 0x168 <main>
  5a:	e5 c1       	rjmp	.+970    	; 0x426 <_exit>

0000005c <__bad_interrupt>:
  5c:	d1 cf       	rjmp	.-94     	; 0x0 <__vectors>

0000005e <_Z10USART_Initv>:
	register int i = 0;
	while (data[i]){
		USART_Transmit(data[i]);
		i++;
	}
}
  5e:	10 bc       	out	0x20, r1	; 32
  60:	83 e3       	ldi	r24, 0x33	; 51
  62:	89 b9       	out	0x09, r24	; 9
  64:	80 b5       	in	r24, 0x20	; 32
  66:	86 68       	ori	r24, 0x86	; 134
  68:	80 bd       	out	0x20, r24	; 32
  6a:	53 9a       	sbi	0x0a, 3	; 10
  6c:	08 95       	ret

0000006e <_Z14USART_Transmitc>:
  6e:	5d 9b       	sbis	0x0b, 5	; 11
  70:	fe cf       	rjmp	.-4      	; 0x6e <_Z14USART_Transmitc>
  72:	8c b9       	out	0x0c, r24	; 12
  74:	08 95       	ret

00000076 <_Z10CreateNodeci>:
};
typedef struct node NODE;


NODE* CreateNode(char data, int amount)
{
  76:	1f 93       	push	r17
  78:	cf 93       	push	r28
  7a:	df 93       	push	r29
  7c:	18 2f       	mov	r17, r24
  7e:	eb 01       	movw	r28, r22
	NODE *n = (NODE*) malloc(sizeof(struct node));
  80:	83 e0       	ldi	r24, 0x03	; 3
  82:	90 e0       	ldi	r25, 0x00	; 0
  84:	af d0       	rcall	.+350    	; 0x1e4 <malloc>
// 	if(n == NULL)
// 		return NULL;
	n->data = data;
  86:	fc 01       	movw	r30, r24
  88:	10 83       	st	Z, r17
	n->amount = amount;
  8a:	d2 83       	std	Z+2, r29	; 0x02
  8c:	c1 83       	std	Z+1, r28	; 0x01
	for (int i = 0; i < n->amount; i++)
  8e:	1c 16       	cp	r1, r28
  90:	1d 06       	cpc	r1, r29
  92:	6c f4       	brge	.+26     	; 0xae <_Z10CreateNodeci+0x38>
  94:	33 96       	adiw	r30, 0x03	; 3
  96:	be 01       	movw	r22, r28
  98:	66 0f       	add	r22, r22
  9a:	77 1f       	adc	r23, r23
  9c:	6d 5f       	subi	r22, 0xFD	; 253
  9e:	7f 4f       	sbci	r23, 0xFF	; 255
  a0:	68 0f       	add	r22, r24
  a2:	79 1f       	adc	r23, r25
		n->next[i] = NULL;
  a4:	11 92       	st	Z+, r1
  a6:	11 92       	st	Z+, r1
	NODE *n = (NODE*) malloc(sizeof(struct node));
// 	if(n == NULL)
// 		return NULL;
	n->data = data;
	n->amount = amount;
	for (int i = 0; i < n->amount; i++)
  a8:	e6 17       	cp	r30, r22
  aa:	f7 07       	cpc	r31, r23
  ac:	d9 f7       	brne	.-10     	; 0xa4 <_Z10CreateNodeci+0x2e>
		n->next[i] = NULL;
	return n;
}
  ae:	df 91       	pop	r29
  b0:	cf 91       	pop	r28
  b2:	1f 91       	pop	r17
  b4:	08 95       	ret

000000b6 <_Z10InsertNodeRP4nodeciPii>:

void InsertNode(NODE*& root, char x, int y, int *array, int length)
{
  b6:	ef 92       	push	r14
  b8:	ff 92       	push	r15
  ba:	0f 93       	push	r16
  bc:	1f 93       	push	r17
  be:	cf 93       	push	r28
  c0:	df 93       	push	r29
  c2:	7c 01       	movw	r14, r24
  c4:	86 2f       	mov	r24, r22
	if (root == NULL)
  c6:	f7 01       	movw	r30, r14
  c8:	c0 81       	ld	r28, Z
  ca:	d1 81       	ldd	r29, Z+1	; 0x01
  cc:	20 97       	sbiw	r28, 0x00	; 0
  ce:	21 f0       	breq	.+8      	; 0xd8 <_Z10InsertNodeRP4nodeciPii+0x22>
		root = CreateNode(x, y);
		return;
	}
	NODE* p = root;
	int i;
	for(i = 1 ; i < length; i++)
  d0:	02 30       	cpi	r16, 0x02	; 2
  d2:	11 05       	cpc	r17, r1
  d4:	3c f4       	brge	.+14     	; 0xe4 <_Z10InsertNodeRP4nodeciPii+0x2e>
  d6:	19 c0       	rjmp	.+50     	; 0x10a <_Z10InsertNodeRP4nodeciPii+0x54>

void InsertNode(NODE*& root, char x, int y, int *array, int length)
{
	if (root == NULL)
	{
		root = CreateNode(x, y);
  d8:	ba 01       	movw	r22, r20
  da:	cd df       	rcall	.-102    	; 0x76 <_Z10CreateNodeci>
  dc:	f7 01       	movw	r30, r14
  de:	91 83       	std	Z+1, r25	; 0x01
  e0:	80 83       	st	Z, r24
		return;
  e2:	27 c0       	rjmp	.+78     	; 0x132 <_Z10InsertNodeRP4nodeciPii+0x7c>
  e4:	d9 01       	movw	r26, r18
  e6:	12 96       	adiw	r26, 0x02	; 2
  e8:	78 01       	movw	r14, r16
  ea:	ee 0c       	add	r14, r14
  ec:	ff 1c       	adc	r15, r15
  ee:	e2 0e       	add	r14, r18
  f0:	f3 1e       	adc	r15, r19
	}
	NODE* p = root;
	int i;
	for(i = 1 ; i < length; i++)
		p = p->next[array[i]];
  f2:	ed 91       	ld	r30, X+
  f4:	fd 91       	ld	r31, X+
  f6:	ee 0f       	add	r30, r30
  f8:	ff 1f       	adc	r31, r31
  fa:	ec 0f       	add	r30, r28
  fc:	fd 1f       	adc	r31, r29
  fe:	c3 81       	ldd	r28, Z+3	; 0x03
 100:	d4 81       	ldd	r29, Z+4	; 0x04
		root = CreateNode(x, y);
		return;
	}
	NODE* p = root;
	int i;
	for(i = 1 ; i < length; i++)
 102:	ae 15       	cp	r26, r14
 104:	bf 05       	cpc	r27, r15
 106:	a9 f7       	brne	.-22     	; 0xf2 <_Z10InsertNodeRP4nodeciPii+0x3c>
 108:	02 c0       	rjmp	.+4      	; 0x10e <_Z10InsertNodeRP4nodeciPii+0x58>
 10a:	01 e0       	ldi	r16, 0x01	; 1
 10c:	10 e0       	ldi	r17, 0x00	; 0
		p = p->next[array[i]];
	p->next[array[i - 1]] = CreateNode(x, y);
 10e:	01 50       	subi	r16, 0x01	; 1
 110:	10 48       	sbci	r17, 0x80	; 128
 112:	00 0f       	add	r16, r16
 114:	11 1f       	adc	r17, r17
 116:	f9 01       	movw	r30, r18
 118:	e0 0f       	add	r30, r16
 11a:	f1 1f       	adc	r31, r17
 11c:	00 81       	ld	r16, Z
 11e:	11 81       	ldd	r17, Z+1	; 0x01
 120:	ba 01       	movw	r22, r20
 122:	a9 df       	rcall	.-174    	; 0x76 <_Z10CreateNodeci>
 124:	f8 01       	movw	r30, r16
 126:	ee 0f       	add	r30, r30
 128:	ff 1f       	adc	r31, r31
 12a:	ec 0f       	add	r30, r28
 12c:	fd 1f       	adc	r31, r29
 12e:	94 83       	std	Z+4, r25	; 0x04
 130:	83 83       	std	Z+3, r24	; 0x03
}
 132:	df 91       	pop	r29
 134:	cf 91       	pop	r28
 136:	1f 91       	pop	r17
 138:	0f 91       	pop	r16
 13a:	ff 90       	pop	r15
 13c:	ef 90       	pop	r14
 13e:	08 95       	ret

00000140 <_Z4ReadP4nodePii>:

NODE* Read(NODE* R, int* arr, int length)
{
	NODE* ptr = R;
	int i;
	for (i = 0; i < length; i++)
 140:	14 16       	cp	r1, r20
 142:	15 06       	cpc	r1, r21
 144:	84 f4       	brge	.+32     	; 0x166 <_Z4ReadP4nodePii+0x26>
 146:	db 01       	movw	r26, r22
 148:	44 0f       	add	r20, r20
 14a:	55 1f       	adc	r21, r21
 14c:	64 0f       	add	r22, r20
 14e:	75 1f       	adc	r23, r21
		ptr = ptr->next[arr[i]];
 150:	ed 91       	ld	r30, X+
 152:	fd 91       	ld	r31, X+
 154:	ee 0f       	add	r30, r30
 156:	ff 1f       	adc	r31, r31
 158:	e8 0f       	add	r30, r24
 15a:	f9 1f       	adc	r31, r25
 15c:	83 81       	ldd	r24, Z+3	; 0x03
 15e:	94 81       	ldd	r25, Z+4	; 0x04

NODE* Read(NODE* R, int* arr, int length)
{
	NODE* ptr = R;
	int i;
	for (i = 0; i < length; i++)
 160:	a6 17       	cp	r26, r22
 162:	b7 07       	cpc	r27, r23
 164:	a9 f7       	brne	.-22     	; 0x150 <_Z4ReadP4nodePii+0x10>
		ptr = ptr->next[arr[i]];
	return ptr;
}
 166:	08 95       	ret

00000168 <main>:

int main(void)
{
 168:	cf 93       	push	r28
 16a:	df 93       	push	r29
 16c:	00 d0       	rcall	.+0      	; 0x16e <main+0x6>
 16e:	00 d0       	rcall	.+0      	; 0x170 <main+0x8>
 170:	00 d0       	rcall	.+0      	; 0x172 <main+0xa>
 172:	cd b7       	in	r28, 0x3d	; 61
 174:	de b7       	in	r29, 0x3e	; 62
	int array[] = {0};
 176:	1a 82       	std	Y+2, r1	; 0x02
 178:	19 82       	std	Y+1, r1	; 0x01
	int arr[] = {1};
 17a:	81 e0       	ldi	r24, 0x01	; 1
 17c:	90 e0       	ldi	r25, 0x00	; 0
 17e:	9c 83       	std	Y+4, r25	; 0x04
 180:	8b 83       	std	Y+3, r24	; 0x03
	NODE *Root = CreateNode('a', 3);
 182:	63 e0       	ldi	r22, 0x03	; 3
 184:	70 e0       	ldi	r23, 0x00	; 0
 186:	81 e6       	ldi	r24, 0x61	; 97
 188:	76 df       	rcall	.-276    	; 0x76 <_Z10CreateNodeci>
 18a:	9e 83       	std	Y+6, r25	; 0x06
 18c:	8d 83       	std	Y+5, r24	; 0x05
	InsertNode(Root, 'b', 1, array, 1);
 18e:	01 e0       	ldi	r16, 0x01	; 1
 190:	10 e0       	ldi	r17, 0x00	; 0
 192:	9e 01       	movw	r18, r28
 194:	2f 5f       	subi	r18, 0xFF	; 255
 196:	3f 4f       	sbci	r19, 0xFF	; 255
 198:	41 e0       	ldi	r20, 0x01	; 1
 19a:	50 e0       	ldi	r21, 0x00	; 0
 19c:	62 e6       	ldi	r22, 0x62	; 98
 19e:	ce 01       	movw	r24, r28
 1a0:	05 96       	adiw	r24, 0x05	; 5
 1a2:	89 df       	rcall	.-238    	; 0xb6 <_Z10InsertNodeRP4nodeciPii>
	InsertNode(Root, 'z', 1, arr, 1);
 1a4:	9e 01       	movw	r18, r28
 1a6:	2d 5f       	subi	r18, 0xFD	; 253
 1a8:	3f 4f       	sbci	r19, 0xFF	; 255
 1aa:	41 e0       	ldi	r20, 0x01	; 1
 1ac:	50 e0       	ldi	r21, 0x00	; 0
 1ae:	6a e7       	ldi	r22, 0x7A	; 122
 1b0:	ce 01       	movw	r24, r28
 1b2:	05 96       	adiw	r24, 0x05	; 5
 1b4:	80 df       	rcall	.-256    	; 0xb6 <_Z10InsertNodeRP4nodeciPii>
	NODE *p =Read(Root, arr, 1);
 1b6:	41 e0       	ldi	r20, 0x01	; 1
 1b8:	50 e0       	ldi	r21, 0x00	; 0
 1ba:	be 01       	movw	r22, r28
 1bc:	6d 5f       	subi	r22, 0xFD	; 253
 1be:	7f 4f       	sbci	r23, 0xFF	; 255
 1c0:	8d 81       	ldd	r24, Y+5	; 0x05
 1c2:	9e 81       	ldd	r25, Y+6	; 0x06
 1c4:	bd df       	rcall	.-134    	; 0x140 <_Z4ReadP4nodePii>
 1c6:	8c 01       	movw	r16, r24
	USART_Init();
 1c8:	4a df       	rcall	.-364    	; 0x5e <_Z10USART_Initv>
    while (1)
	{
		USART_Transmit(p->data);
 1ca:	f8 01       	movw	r30, r16
 1cc:	80 81       	ld	r24, Z
 1ce:	4f df       	rcall	.-354    	; 0x6e <_Z14USART_Transmitc>
	#else
		//round up by default
		__ticks_dc = (uint32_t)(ceil(fabs(__tmp)));
	#endif

	__builtin_avr_delay_cycles(__ticks_dc);
 1d0:	ff e3       	ldi	r31, 0x3F	; 63
 1d2:	2d e0       	ldi	r18, 0x0D	; 13
 1d4:	83 e0       	ldi	r24, 0x03	; 3
 1d6:	f1 50       	subi	r31, 0x01	; 1
 1d8:	20 40       	sbci	r18, 0x00	; 0
 1da:	80 40       	sbci	r24, 0x00	; 0
 1dc:	e1 f7       	brne	.-8      	; 0x1d6 <main+0x6e>
 1de:	00 c0       	rjmp	.+0      	; 0x1e0 <main+0x78>
 1e0:	00 00       	nop
 1e2:	f3 cf       	rjmp	.-26     	; 0x1ca <main+0x62>

000001e4 <malloc>:
 1e4:	0f 93       	push	r16
 1e6:	1f 93       	push	r17
 1e8:	cf 93       	push	r28
 1ea:	df 93       	push	r29
 1ec:	82 30       	cpi	r24, 0x02	; 2
 1ee:	91 05       	cpc	r25, r1
 1f0:	10 f4       	brcc	.+4      	; 0x1f6 <malloc+0x12>
 1f2:	82 e0       	ldi	r24, 0x02	; 2
 1f4:	90 e0       	ldi	r25, 0x00	; 0
 1f6:	e0 91 68 00 	lds	r30, 0x0068	; 0x800068 <__flp>
 1fa:	f0 91 69 00 	lds	r31, 0x0069	; 0x800069 <__flp+0x1>
 1fe:	20 e0       	ldi	r18, 0x00	; 0
 200:	30 e0       	ldi	r19, 0x00	; 0
 202:	a0 e0       	ldi	r26, 0x00	; 0
 204:	b0 e0       	ldi	r27, 0x00	; 0
 206:	30 97       	sbiw	r30, 0x00	; 0
 208:	19 f1       	breq	.+70     	; 0x250 <malloc+0x6c>
 20a:	40 81       	ld	r20, Z
 20c:	51 81       	ldd	r21, Z+1	; 0x01
 20e:	02 81       	ldd	r16, Z+2	; 0x02
 210:	13 81       	ldd	r17, Z+3	; 0x03
 212:	48 17       	cp	r20, r24
 214:	59 07       	cpc	r21, r25
 216:	c8 f0       	brcs	.+50     	; 0x24a <malloc+0x66>
 218:	84 17       	cp	r24, r20
 21a:	95 07       	cpc	r25, r21
 21c:	69 f4       	brne	.+26     	; 0x238 <malloc+0x54>
 21e:	10 97       	sbiw	r26, 0x00	; 0
 220:	31 f0       	breq	.+12     	; 0x22e <malloc+0x4a>
 222:	12 96       	adiw	r26, 0x02	; 2
 224:	0c 93       	st	X, r16
 226:	12 97       	sbiw	r26, 0x02	; 2
 228:	13 96       	adiw	r26, 0x03	; 3
 22a:	1c 93       	st	X, r17
 22c:	27 c0       	rjmp	.+78     	; 0x27c <malloc+0x98>
 22e:	00 93 68 00 	sts	0x0068, r16	; 0x800068 <__flp>
 232:	10 93 69 00 	sts	0x0069, r17	; 0x800069 <__flp+0x1>
 236:	22 c0       	rjmp	.+68     	; 0x27c <malloc+0x98>
 238:	21 15       	cp	r18, r1
 23a:	31 05       	cpc	r19, r1
 23c:	19 f0       	breq	.+6      	; 0x244 <malloc+0x60>
 23e:	42 17       	cp	r20, r18
 240:	53 07       	cpc	r21, r19
 242:	18 f4       	brcc	.+6      	; 0x24a <malloc+0x66>
 244:	9a 01       	movw	r18, r20
 246:	bd 01       	movw	r22, r26
 248:	ef 01       	movw	r28, r30
 24a:	df 01       	movw	r26, r30
 24c:	f8 01       	movw	r30, r16
 24e:	db cf       	rjmp	.-74     	; 0x206 <malloc+0x22>
 250:	21 15       	cp	r18, r1
 252:	31 05       	cpc	r19, r1
 254:	f9 f0       	breq	.+62     	; 0x294 <malloc+0xb0>
 256:	28 1b       	sub	r18, r24
 258:	39 0b       	sbc	r19, r25
 25a:	24 30       	cpi	r18, 0x04	; 4
 25c:	31 05       	cpc	r19, r1
 25e:	80 f4       	brcc	.+32     	; 0x280 <malloc+0x9c>
 260:	8a 81       	ldd	r24, Y+2	; 0x02
 262:	9b 81       	ldd	r25, Y+3	; 0x03
 264:	61 15       	cp	r22, r1
 266:	71 05       	cpc	r23, r1
 268:	21 f0       	breq	.+8      	; 0x272 <malloc+0x8e>
 26a:	fb 01       	movw	r30, r22
 26c:	93 83       	std	Z+3, r25	; 0x03
 26e:	82 83       	std	Z+2, r24	; 0x02
 270:	04 c0       	rjmp	.+8      	; 0x27a <malloc+0x96>
 272:	90 93 69 00 	sts	0x0069, r25	; 0x800069 <__flp+0x1>
 276:	80 93 68 00 	sts	0x0068, r24	; 0x800068 <__flp>
 27a:	fe 01       	movw	r30, r28
 27c:	32 96       	adiw	r30, 0x02	; 2
 27e:	44 c0       	rjmp	.+136    	; 0x308 <malloc+0x124>
 280:	fe 01       	movw	r30, r28
 282:	e2 0f       	add	r30, r18
 284:	f3 1f       	adc	r31, r19
 286:	81 93       	st	Z+, r24
 288:	91 93       	st	Z+, r25
 28a:	22 50       	subi	r18, 0x02	; 2
 28c:	31 09       	sbc	r19, r1
 28e:	39 83       	std	Y+1, r19	; 0x01
 290:	28 83       	st	Y, r18
 292:	3a c0       	rjmp	.+116    	; 0x308 <malloc+0x124>
 294:	20 91 66 00 	lds	r18, 0x0066	; 0x800066 <__data_end>
 298:	30 91 67 00 	lds	r19, 0x0067	; 0x800067 <__data_end+0x1>
 29c:	23 2b       	or	r18, r19
 29e:	41 f4       	brne	.+16     	; 0x2b0 <malloc+0xcc>
 2a0:	20 91 62 00 	lds	r18, 0x0062	; 0x800062 <__malloc_heap_start>
 2a4:	30 91 63 00 	lds	r19, 0x0063	; 0x800063 <__malloc_heap_start+0x1>
 2a8:	30 93 67 00 	sts	0x0067, r19	; 0x800067 <__data_end+0x1>
 2ac:	20 93 66 00 	sts	0x0066, r18	; 0x800066 <__data_end>
 2b0:	20 91 60 00 	lds	r18, 0x0060	; 0x800060 <__data_start>
 2b4:	30 91 61 00 	lds	r19, 0x0061	; 0x800061 <__data_start+0x1>
 2b8:	21 15       	cp	r18, r1
 2ba:	31 05       	cpc	r19, r1
 2bc:	41 f4       	brne	.+16     	; 0x2ce <malloc+0xea>
 2be:	2d b7       	in	r18, 0x3d	; 61
 2c0:	3e b7       	in	r19, 0x3e	; 62
 2c2:	40 91 64 00 	lds	r20, 0x0064	; 0x800064 <__malloc_margin>
 2c6:	50 91 65 00 	lds	r21, 0x0065	; 0x800065 <__malloc_margin+0x1>
 2ca:	24 1b       	sub	r18, r20
 2cc:	35 0b       	sbc	r19, r21
 2ce:	e0 91 66 00 	lds	r30, 0x0066	; 0x800066 <__data_end>
 2d2:	f0 91 67 00 	lds	r31, 0x0067	; 0x800067 <__data_end+0x1>
 2d6:	e2 17       	cp	r30, r18
 2d8:	f3 07       	cpc	r31, r19
 2da:	a0 f4       	brcc	.+40     	; 0x304 <malloc+0x120>
 2dc:	2e 1b       	sub	r18, r30
 2de:	3f 0b       	sbc	r19, r31
 2e0:	28 17       	cp	r18, r24
 2e2:	39 07       	cpc	r19, r25
 2e4:	78 f0       	brcs	.+30     	; 0x304 <malloc+0x120>
 2e6:	ac 01       	movw	r20, r24
 2e8:	4e 5f       	subi	r20, 0xFE	; 254
 2ea:	5f 4f       	sbci	r21, 0xFF	; 255
 2ec:	24 17       	cp	r18, r20
 2ee:	35 07       	cpc	r19, r21
 2f0:	48 f0       	brcs	.+18     	; 0x304 <malloc+0x120>
 2f2:	4e 0f       	add	r20, r30
 2f4:	5f 1f       	adc	r21, r31
 2f6:	50 93 67 00 	sts	0x0067, r21	; 0x800067 <__data_end+0x1>
 2fa:	40 93 66 00 	sts	0x0066, r20	; 0x800066 <__data_end>
 2fe:	81 93       	st	Z+, r24
 300:	91 93       	st	Z+, r25
 302:	02 c0       	rjmp	.+4      	; 0x308 <malloc+0x124>
 304:	e0 e0       	ldi	r30, 0x00	; 0
 306:	f0 e0       	ldi	r31, 0x00	; 0
 308:	cf 01       	movw	r24, r30
 30a:	df 91       	pop	r29
 30c:	cf 91       	pop	r28
 30e:	1f 91       	pop	r17
 310:	0f 91       	pop	r16
 312:	08 95       	ret

00000314 <free>:
 314:	cf 93       	push	r28
 316:	df 93       	push	r29
 318:	00 97       	sbiw	r24, 0x00	; 0
 31a:	09 f4       	brne	.+2      	; 0x31e <free+0xa>
 31c:	81 c0       	rjmp	.+258    	; 0x420 <__LOCK_REGION_LENGTH__+0x20>
 31e:	fc 01       	movw	r30, r24
 320:	32 97       	sbiw	r30, 0x02	; 2
 322:	13 82       	std	Z+3, r1	; 0x03
 324:	12 82       	std	Z+2, r1	; 0x02
 326:	a0 91 68 00 	lds	r26, 0x0068	; 0x800068 <__flp>
 32a:	b0 91 69 00 	lds	r27, 0x0069	; 0x800069 <__flp+0x1>
 32e:	10 97       	sbiw	r26, 0x00	; 0
 330:	81 f4       	brne	.+32     	; 0x352 <free+0x3e>
 332:	20 81       	ld	r18, Z
 334:	31 81       	ldd	r19, Z+1	; 0x01
 336:	82 0f       	add	r24, r18
 338:	93 1f       	adc	r25, r19
 33a:	20 91 66 00 	lds	r18, 0x0066	; 0x800066 <__data_end>
 33e:	30 91 67 00 	lds	r19, 0x0067	; 0x800067 <__data_end+0x1>
 342:	28 17       	cp	r18, r24
 344:	39 07       	cpc	r19, r25
 346:	51 f5       	brne	.+84     	; 0x39c <free+0x88>
 348:	f0 93 67 00 	sts	0x0067, r31	; 0x800067 <__data_end+0x1>
 34c:	e0 93 66 00 	sts	0x0066, r30	; 0x800066 <__data_end>
 350:	67 c0       	rjmp	.+206    	; 0x420 <__LOCK_REGION_LENGTH__+0x20>
 352:	ed 01       	movw	r28, r26
 354:	20 e0       	ldi	r18, 0x00	; 0
 356:	30 e0       	ldi	r19, 0x00	; 0
 358:	ce 17       	cp	r28, r30
 35a:	df 07       	cpc	r29, r31
 35c:	40 f4       	brcc	.+16     	; 0x36e <free+0x5a>
 35e:	4a 81       	ldd	r20, Y+2	; 0x02
 360:	5b 81       	ldd	r21, Y+3	; 0x03
 362:	9e 01       	movw	r18, r28
 364:	41 15       	cp	r20, r1
 366:	51 05       	cpc	r21, r1
 368:	f1 f0       	breq	.+60     	; 0x3a6 <free+0x92>
 36a:	ea 01       	movw	r28, r20
 36c:	f5 cf       	rjmp	.-22     	; 0x358 <free+0x44>
 36e:	d3 83       	std	Z+3, r29	; 0x03
 370:	c2 83       	std	Z+2, r28	; 0x02
 372:	40 81       	ld	r20, Z
 374:	51 81       	ldd	r21, Z+1	; 0x01
 376:	84 0f       	add	r24, r20
 378:	95 1f       	adc	r25, r21
 37a:	c8 17       	cp	r28, r24
 37c:	d9 07       	cpc	r29, r25
 37e:	59 f4       	brne	.+22     	; 0x396 <free+0x82>
 380:	88 81       	ld	r24, Y
 382:	99 81       	ldd	r25, Y+1	; 0x01
 384:	84 0f       	add	r24, r20
 386:	95 1f       	adc	r25, r21
 388:	02 96       	adiw	r24, 0x02	; 2
 38a:	91 83       	std	Z+1, r25	; 0x01
 38c:	80 83       	st	Z, r24
 38e:	8a 81       	ldd	r24, Y+2	; 0x02
 390:	9b 81       	ldd	r25, Y+3	; 0x03
 392:	93 83       	std	Z+3, r25	; 0x03
 394:	82 83       	std	Z+2, r24	; 0x02
 396:	21 15       	cp	r18, r1
 398:	31 05       	cpc	r19, r1
 39a:	29 f4       	brne	.+10     	; 0x3a6 <free+0x92>
 39c:	f0 93 69 00 	sts	0x0069, r31	; 0x800069 <__flp+0x1>
 3a0:	e0 93 68 00 	sts	0x0068, r30	; 0x800068 <__flp>
 3a4:	3d c0       	rjmp	.+122    	; 0x420 <__LOCK_REGION_LENGTH__+0x20>
 3a6:	e9 01       	movw	r28, r18
 3a8:	fb 83       	std	Y+3, r31	; 0x03
 3aa:	ea 83       	std	Y+2, r30	; 0x02
 3ac:	49 91       	ld	r20, Y+
 3ae:	59 91       	ld	r21, Y+
 3b0:	c4 0f       	add	r28, r20
 3b2:	d5 1f       	adc	r29, r21
 3b4:	ec 17       	cp	r30, r28
 3b6:	fd 07       	cpc	r31, r29
 3b8:	61 f4       	brne	.+24     	; 0x3d2 <free+0xbe>
 3ba:	80 81       	ld	r24, Z
 3bc:	91 81       	ldd	r25, Z+1	; 0x01
 3be:	84 0f       	add	r24, r20
 3c0:	95 1f       	adc	r25, r21
 3c2:	02 96       	adiw	r24, 0x02	; 2
 3c4:	e9 01       	movw	r28, r18
 3c6:	99 83       	std	Y+1, r25	; 0x01
 3c8:	88 83       	st	Y, r24
 3ca:	82 81       	ldd	r24, Z+2	; 0x02
 3cc:	93 81       	ldd	r25, Z+3	; 0x03
 3ce:	9b 83       	std	Y+3, r25	; 0x03
 3d0:	8a 83       	std	Y+2, r24	; 0x02
 3d2:	e0 e0       	ldi	r30, 0x00	; 0
 3d4:	f0 e0       	ldi	r31, 0x00	; 0
 3d6:	12 96       	adiw	r26, 0x02	; 2
 3d8:	8d 91       	ld	r24, X+
 3da:	9c 91       	ld	r25, X
 3dc:	13 97       	sbiw	r26, 0x03	; 3
 3de:	00 97       	sbiw	r24, 0x00	; 0
 3e0:	19 f0       	breq	.+6      	; 0x3e8 <free+0xd4>
 3e2:	fd 01       	movw	r30, r26
 3e4:	dc 01       	movw	r26, r24
 3e6:	f7 cf       	rjmp	.-18     	; 0x3d6 <free+0xc2>
 3e8:	8d 91       	ld	r24, X+
 3ea:	9c 91       	ld	r25, X
 3ec:	11 97       	sbiw	r26, 0x01	; 1
 3ee:	9d 01       	movw	r18, r26
 3f0:	2e 5f       	subi	r18, 0xFE	; 254
 3f2:	3f 4f       	sbci	r19, 0xFF	; 255
 3f4:	82 0f       	add	r24, r18
 3f6:	93 1f       	adc	r25, r19
 3f8:	20 91 66 00 	lds	r18, 0x0066	; 0x800066 <__data_end>
 3fc:	30 91 67 00 	lds	r19, 0x0067	; 0x800067 <__data_end+0x1>
 400:	28 17       	cp	r18, r24
 402:	39 07       	cpc	r19, r25
 404:	69 f4       	brne	.+26     	; 0x420 <__LOCK_REGION_LENGTH__+0x20>
 406:	30 97       	sbiw	r30, 0x00	; 0
 408:	29 f4       	brne	.+10     	; 0x414 <__LOCK_REGION_LENGTH__+0x14>
 40a:	10 92 69 00 	sts	0x0069, r1	; 0x800069 <__flp+0x1>
 40e:	10 92 68 00 	sts	0x0068, r1	; 0x800068 <__flp>
 412:	02 c0       	rjmp	.+4      	; 0x418 <__LOCK_REGION_LENGTH__+0x18>
 414:	13 82       	std	Z+3, r1	; 0x03
 416:	12 82       	std	Z+2, r1	; 0x02
 418:	b0 93 67 00 	sts	0x0067, r27	; 0x800067 <__data_end+0x1>
 41c:	a0 93 66 00 	sts	0x0066, r26	; 0x800066 <__data_end>
 420:	df 91       	pop	r29
 422:	cf 91       	pop	r28
 424:	08 95       	ret

00000426 <_exit>:
 426:	f8 94       	cli

00000428 <__stop_program>:
 428:	ff cf       	rjmp	.-2      	; 0x428 <__stop_program>
